; Function Attrs: mustprogress uwtable
define dso_local void @_ZN15cmCustomCommand10SetCommentEPKc(ptr noundef nonnull align 8 dereferenceable(348) %0, ptr noundef %1) local_unnamed_addr #6 align 2 {
  %3 = icmp ne ptr %1, null
  %4 = select i1 %3, ptr %1, ptr @.str
  %5 = getelementptr inbounds nuw i8, ptr %0, i64 168
  %6 = getelementptr inbounds nuw i8, ptr %0, i64 176
  %7 = load i64, ptr %6, align 8, !tbaa !17
  %8 = tail call noundef i64 @strlen(ptr noundef nonnull dereferenceable(1) %4) #24
  %9 = tail call noundef nonnull align 8 dereferenceable(32) ptr @_ZNSt7__cxx1112basic_stringIcSt11char_traitsIcESaIcEE10_M_replaceEmmPKcm(ptr noundef nonnull align 8 dereferenceable(32) %5, i64 noundef 0, i64 noundef %7, ptr noundef nonnull %4, i64 noundef %8)
  %10 = getelementptr inbounds nuw i8, ptr %0, i64 329
  %11 = zext i1 %3 to i8
  store i8 %11, ptr %10, align 1, !tbaa !56
  ret void
}